target datalayout = "e-m:e-p270:32:32-p271:32:32-p272:64:64-i64:64-i128:128-f80:128-n8:16:32:64-S128"
target triple = "x86_64-pc-linux-gnu"

%"class.icu_77::UObject" = type { ptr }
%"class.icu_77::Calendar" = type <{ %"class.icu_77::UObject", [24 x i32], [24 x i8], i8, [7 x i8], double, ptr, i8, i16, i8, i32, i32, i32, i8, i8, i16, [4 x i8], ptr, ptr }>

; Function Attrs: mustprogress nounwind uwtable
define noundef zeroext i8 @_ZNK6icu_778Calendar25getMinimalDaysInFirstWeekEv(ptr noundef nonnull align 8 dereferenceable(192) %0) #0 align 2 {
  %2 = alloca ptr, align 8
  store ptr %0, ptr %2, align 8, !tbaa !37
  %3 = load ptr, ptr %2, align 8
  %4 = getelementptr inbounds nuw %"class.icu_77::Calendar", ptr %3, i32 0, i32 9
  %5 = load i8, ptr %4, align 1, !tbaa !67
  ret i8 %5
}

; Function Attrs: mustprogress uwtable
define noundef i32 @_ZNK6icu_778Calendar8getLimitE19UCalendarDateFieldsNS0_10ELimitTypeE(ptr noundef nonnull align 8 dereferenceable(192) %0, i32 noundef %1, i32 noundef %2) unnamed_addr #1 align 2 {
  %4 = alloca i32, align 4
  %5 = alloca ptr, align 8
  %6 = alloca i32, align 4
  %7 = alloca i32, align 4
  %8 = alloca i32, align 4
  %9 = alloca i32, align 4
  %10 = alloca i32, align 4
  store ptr %0, ptr %5, align 8, !tbaa !37
  store i32 %1, ptr %6, align 4, !tbaa !106
  store i32 %2, ptr %7, align 4, !tbaa !130
  %11 = load ptr, ptr %5, align 8
  %12 = load i32, ptr %6, align 4, !tbaa !106
  switch i32 %12, label %60 [
    i32 7, label %13
    i32 9, label %13
    i32 10, label %13
    i32 11, label %13
    i32 12, label %13
    i32 13, label %13
    i32 14, label %13
    i32 15, label %13
    i32 16, label %13
    i32 18, label %13
    i32 20, label %13
    i32 21, label %13
    i32 22, label %13
    i32 4, label %21
  ]

13:                                               ; preds = %3, %3, %3, %3, %3, %3, %3, %3, %3, %3, %3, %3, %3
  %14 = load i32, ptr %6, align 4, !tbaa !106
  %15 = zext i32 %14 to i64
  %16 = getelementptr inbounds nuw [24 x [4 x i32]], ptr @_ZN6icu_77L15kCalendarLimitsE, i64 0, i64 %15
  %17 = load i32, ptr %7, align 4, !tbaa !130
  %18 = zext i32 %17 to i64
  %19 = getelementptr inbounds nuw [4 x i32], ptr %16, i64 0, i64 %18
  %20 = load i32, ptr %19, align 4, !tbaa !14
  store i32 %20, ptr %4, align 4
  br label %67

21:                                               ; preds = %3
  call void @llvm.lifetime.start.p0(i64 4, ptr %8) #16
  %22 = load i32, ptr %7, align 4, !tbaa !130
  %23 = icmp eq i32 %22, 0
  br i1 %23, label %24, label %29

24:                                               ; preds = %21
  %25 = call noundef zeroext i8 @_ZNK6icu_778Calendar25getMinimalDaysInFirstWeekEv(ptr noundef nonnull align 8 dereferenceable(192) %11)
  %26 = zext i8 %25 to i32
  %27 = icmp eq i32 %26, 1
  %28 = select i1 %27, i32 1, i32 0
  store i32 %28, ptr %8, align 4, !tbaa !14
  br label %58

29:                                               ; preds = %21
  %30 = load i32, ptr %7, align 4, !tbaa !130
  %31 = icmp eq i32 %30, 1
  br i1 %31, label %32, label %33

32:                                               ; preds = %29
  store i32 1, ptr %8, align 4, !tbaa !14
  br label %57

33:                                               ; preds = %29
  call void @llvm.lifetime.start.p0(i64 4, ptr %9) #16
  %34 = call noundef zeroext i8 @_ZNK6icu_778Calendar25getMinimalDaysInFirstWeekEv(ptr noundef nonnull align 8 dereferenceable(192) %11)
  %35 = zext i8 %34 to i32
  store i32 %35, ptr %9, align 4, !tbaa !14
  call void @llvm.lifetime.start.p0(i64 4, ptr %10) #16
  %36 = load i32, ptr %7, align 4, !tbaa !130
  %37 = load ptr, ptr %11, align 8, !tbaa !25
  %38 = getelementptr inbounds ptr, ptr %37, i64 37
  %39 = load ptr, ptr %38, align 8
  %40 = call noundef i32 %39(ptr noundef nonnull align 8 dereferenceable(192) %11, i32 noundef 5, i32 noundef %36)
  store i32 %40, ptr %10, align 4, !tbaa !14
  %41 = load i32, ptr %7, align 4, !tbaa !130
  %42 = icmp eq i32 %41, 2
  br i1 %42, label %43, label %49

43:                                               ; preds = %33
  %44 = load i32, ptr %10, align 4, !tbaa !14
  %45 = load i32, ptr %9, align 4, !tbaa !14
  %46 = sub nsw i32 7, %45
  %47 = add nsw i32 %44, %46
  %48 = sdiv i32 %47, 7
  store i32 %48, ptr %8, align 4, !tbaa !14
  br label %56

49:                                               ; preds = %33
  %50 = load i32, ptr %10, align 4, !tbaa !14
  %51 = add nsw i32 %50, 6
  %52 = load i32, ptr %9, align 4, !tbaa !14
  %53 = sub nsw i32 7, %52
  %54 = add nsw i32 %51, %53
  %55 = sdiv i32 %54, 7
  store i32 %55, ptr %8, align 4, !tbaa !14
  br label %56

56:                                               ; preds = %49, %43
  call void @llvm.lifetime.end.p0(i64 4, ptr %10) #16
  call void @llvm.lifetime.end.p0(i64 4, ptr %9) #16
  br label %57

57:                                               ; preds = %56, %32
  br label %58

58:                                               ; preds = %57, %24
  %59 = load i32, ptr %8, align 4, !tbaa !14
  store i32 %59, ptr %4, align 4
  call void @llvm.lifetime.end.p0(i64 4, ptr %8) #16
  br label %67

60:                                               ; preds = %3
  %61 = load i32, ptr %6, align 4, !tbaa !106
  %62 = load i32, ptr %7, align 4, !tbaa !130
  %63 = load ptr, ptr %11, align 8, !tbaa !25
  %64 = getelementptr inbounds ptr, ptr %63, i64 37
  %65 = load ptr, ptr %64, align 8
  %66 = call noundef i32 %65(ptr noundef nonnull align 8 dereferenceable(192) %11, i32 noundef %61, i32 noundef %62)
  store i32 %66, ptr %4, align 4
  br label %67

67:                                               ; preds = %60, %58, %13
  %68 = load i32, ptr %4, align 4
  ret i32 %68
}