; Function Attrs: mustprogress uwtable
define noundef i32 @_ZNK6icu_778Calendar8getLimitE19UCalendarDateFieldsNS0_10ELimitTypeE(ptr noundef nonnull align 8 dereferenceable(192) %0, i32 noundef %1, i32 noundef %2) unnamed_addr #1 align 2 {
  switch i32 %1, label %24 [
    i32 7, label %4
    i32 9, label %4
    i32 10, label %4
    i32 11, label %4
    i32 12, label %4
    i32 13, label %4
    i32 14, label %4
    i32 15, label %4
    i32 16, label %4
    i32 18, label %4
    i32 20, label %4
    i32 21, label %4
    i32 22, label %4
    i32 4, label %9
  ]

4:                                                ; preds = %3, %3, %3, %3, %3, %3, %3, %3, %3, %3, %3, %3, %3
  %5 = zext nneg i32 %1 to i64
  %6 = zext i32 %2 to i64
  %7 = getelementptr inbounds nuw [24 x [4 x i32]], ptr @_ZN6icu_77L15kCalendarLimitsE, i64 0, i64 %5, i64 %6
  %8 = load i32, ptr %7, align 4, !tbaa !12
  br label %29

9:                                                ; preds = %3
  switch i32 %2, label %15 [
    i32 0, label %10
    i32 1, label %29
  ]

10:                                               ; preds = %9
  %11 = getelementptr inbounds nuw i8, ptr %0, i64 155
  %12 = load i8, ptr %11, align 1, !tbaa !27
  %13 = icmp eq i8 %12, 1
  %14 = zext i1 %13 to i32
  br label %29

15:                                               ; preds = %9
  %16 = getelementptr inbounds nuw i8, ptr %0, i64 155
  %17 = load i8, ptr %16, align 1, !tbaa !27
  %18 = zext i8 %17 to i32
  %19 = load ptr, ptr %0, align 8, !tbaa !15
  %20 = getelementptr inbounds nuw i8, ptr %19, i64 296
  %21 = load ptr, ptr %20, align 8
  %22 = tail call noundef i32 %21(ptr noundef nonnull align 8 dereferenceable(192) %0, i32 noundef 5, i32 noundef %2)
  %23 = icmp eq i32 %2, 2
  %.1.in.v = select i1 %23, i32 7, i32 13
  %reass.sub = sub nsw i32 %.1.in.v, %18
  %.1.in = add i32 %reass.sub, %22
  %.1 = sdiv i32 %.1.in, 7
  br label %29

24:                                               ; preds = %3
  %25 = load ptr, ptr %0, align 8, !tbaa !15
  %26 = getelementptr inbounds nuw i8, ptr %25, i64 296
  %27 = load ptr, ptr %26, align 8
  %28 = tail call noundef i32 %27(ptr noundef nonnull align 8 dereferenceable(192) %0, i32 noundef %1, i32 noundef %2)
  br label %29

29:                                               ; preds = %10, %15, %9, %24, %4
  %.0 = phi i32 [ %28, %24 ], [ %8, %4 ], [ %14, %10 ], [ %.1, %15 ], [ %2, %9 ]
  ret i32 %.0
}